target datalayout = "e-m:e-p270:32:32-p271:32:32-p272:64:64-i64:64-i128:128-f80:128-n8:16:32:64-S128"
target triple = "x86_64-pc-linux-gnu"

%"class.spv::SpirvStream" = type <{ ptr, ptr, ptr, i32, i32, i32, [4 x i8], %"class.std::vector", %"class.std::vector.0", i32, [4 x i8], %"class.std::stack", i32, [4 x i8] }>
%"class.std::vector" = type { %"struct.std::_Vector_base" }
%"struct.std::_Vector_base" = type { %"struct.std::_Vector_base<unsigned int, std::allocator<unsigned int>>::_Vector_impl" }
%"struct.std::_Vector_base<unsigned int, std::allocator<unsigned int>>::_Vector_impl" = type { %"struct.std::_Vector_base<unsigned int, std::allocator<unsigned int>>::_Vector_impl_data" }
%"struct.std::_Vector_base<unsigned int, std::allocator<unsigned int>>::_Vector_impl_data" = type { ptr, ptr, ptr }
%"class.std::vector.0" = type { %"struct.std::_Vector_base.1" }
%"struct.std::_Vector_base.1" = type { %"struct.std::_Vector_base<std::__cxx11::basic_string<char>, std::allocator<std::__cxx11::basic_string<char>>>::_Vector_impl" }
%"struct.std::_Vector_base<std::__cxx11::basic_string<char>, std::allocator<std::__cxx11::basic_string<char>>>::_Vector_impl" = type { %"struct.std::_Vector_base<std::__cxx11::basic_string<char>, std::allocator<std::__cxx11::basic_string<char>>>::_Vector_impl_data" }
%"struct.std::_Vector_base<std::__cxx11::basic_string<char>, std::allocator<std::__cxx11::basic_string<char>>>::_Vector_impl_data" = type { ptr, ptr, ptr }
%"class.std::stack" = type { %"class.std::deque" }
%"class.std::deque" = type { %"class.std::_Deque_base" }
%"class.std::_Deque_base" = type { %"struct.std::_Deque_base<unsigned int, std::allocator<unsigned int>>::_Deque_impl" }
%"struct.std::_Deque_base<unsigned int, std::allocator<unsigned int>>::_Deque_impl" = type { %"struct.std::_Deque_base<unsigned int, std::allocator<unsigned int>>::_Deque_impl_data" }
%"struct.std::_Deque_base<unsigned int, std::allocator<unsigned int>>::_Deque_impl_data" = type { ptr, i64, %"struct.std::_Deque_iterator", %"struct.std::_Deque_iterator" }
%"struct.std::_Deque_iterator" = type { ptr, ptr, ptr, ptr }

@.str.15 = private unnamed_addr constant [2 x i8] c" \00", align 1

; Function Attrs: mustprogress nounwind uwtable
define linkonce_odr noundef nonnull align 4 dereferenceable(4) ptr @_ZNKSt6vectorIjSaIjEEixEm(ptr noundef nonnull align 8 dereferenceable(24) %0, i64 noundef %1) #4 comdat align 2 {
  %3 = alloca ptr, align 8
  %4 = alloca i64, align 8
  store ptr %0, ptr %3, align 8
  store i64 %1, ptr %4, align 8
  %5 = load ptr, ptr %3, align 8
  %6 = getelementptr inbounds %"struct.std::_Vector_base", ptr %5, i32 0, i32 0
  %7 = getelementptr inbounds %"struct.std::_Vector_base<unsigned int, std::allocator<unsigned int>>::_Vector_impl_data", ptr %6, i32 0, i32 0
  %8 = load ptr, ptr %7, align 8
  %9 = load i64, ptr %4, align 8
  %10 = getelementptr inbounds i32, ptr %8, i64 %9
  ret ptr %10
}

; Function Attrs: mustprogress nounwind uwtable
define void @_ZN3spv11SpirvStream14disassembleIdsEi(ptr noundef nonnull align 8 dereferenceable(180) %0, i32 noundef %1) #4 align 2 {
  %3 = alloca ptr, align 8
  %4 = alloca i32, align 4
  %5 = alloca i32, align 4
  store ptr %0, ptr %3, align 8
  store i32 %1, ptr %4, align 4
  %6 = load ptr, ptr %3, align 8
  store i32 0, ptr %5, align 4
  br label %7

7:                                                ; preds = %29, %2
  %8 = load i32, ptr %5, align 4
  %9 = load i32, ptr %4, align 4
  %10 = icmp slt i32 %8, %9
  br i1 %10, label %11, label %32

11:                                               ; preds = %7
  %12 = getelementptr inbounds %"class.spv::SpirvStream", ptr %6, i32 0, i32 2
  %13 = load ptr, ptr %12, align 8
  %14 = getelementptr inbounds %"class.spv::SpirvStream", ptr %6, i32 0, i32 4
  %15 = load i32, ptr %14, align 4
  %16 = add nsw i32 %15, 1
  store i32 %16, ptr %14, align 4
  %17 = sext i32 %15 to i64
  %18 = call noundef nonnull align 4 dereferenceable(4) ptr @_ZNKSt6vectorIjSaIjEEixEm(ptr noundef nonnull align 8 dereferenceable(24) %13, i64 noundef %17) #3
  %19 = load i32, ptr %18, align 4
  call void @_ZN3spv11SpirvStream8outputIdEj(ptr noundef nonnull align 8 dereferenceable(180) %6, i32 noundef %19)
  %20 = load i32, ptr %5, align 4
  %21 = load i32, ptr %4, align 4
  %22 = sub nsw i32 %21, 1
  %23 = icmp slt i32 %20, %22
  br i1 %23, label %24, label %28

24:                                               ; preds = %11
  %25 = getelementptr inbounds %"class.spv::SpirvStream", ptr %6, i32 0, i32 1
  %26 = load ptr, ptr %25, align 8
  %27 = call noundef nonnull align 8 dereferenceable(8) ptr @_ZStlsISt11char_traitsIcEERSt13basic_ostreamIcT_ES5_PKc(ptr noundef nonnull align 8 dereferenceable(8) %26, ptr noundef @.str.15)
  br label %28

28:                                               ; preds = %24, %11
  br label %29

29:                                               ; preds = %28
  %30 = load i32, ptr %5, align 4
  %31 = add nsw i32 %30, 1
  store i32 %31, ptr %5, align 4
  br label %7, !llvm.loop !13

32:                                               ; preds = %7
  ret void
}