; Function Attrs: mustprogress nounwind uwtable
define void @_ZN3spv11SpirvStream14disassembleIdsEi(ptr nocapture noundef nonnull align 8 dereferenceable(180) %0, i32 noundef %1) local_unnamed_addr #3 align 2 {
  %3 = icmp sgt i32 %1, 0
  br i1 %3, label %.lr.ph, label %._crit_edge

.lr.ph:                                           ; preds = %2
  %4 = getelementptr inbounds i8, ptr %0, i64 16
  %5 = getelementptr inbounds i8, ptr %0, i64 28
  %6 = add nsw i32 %1, -1
  %7 = getelementptr inbounds i8, ptr %0, i64 8
  br label %8

8:                                                ; preds = %.lr.ph, %20
  %.06 = phi i32 [ 0, %.lr.ph ], [ %21, %20 ]
  %9 = load ptr, ptr %4, align 8
  %10 = load i32, ptr %5, align 4
  %11 = add nsw i32 %10, 1
  store i32 %11, ptr %5, align 4
  %12 = sext i32 %10 to i64
  %13 = load ptr, ptr %9, align 8
  %14 = getelementptr inbounds i32, ptr %13, i64 %12
  %15 = load i32, ptr %14, align 4
  tail call void @_ZN3spv11SpirvStream8outputIdEj(ptr noundef nonnull align 8 dereferenceable(180) %0, i32 noundef %15)
  %16 = icmp slt i32 %.06, %6
  br i1 %16, label %17, label %20

17:                                               ; preds = %8
  %18 = load ptr, ptr %7, align 8
  %19 = tail call noundef nonnull align 8 dereferenceable(8) ptr @_ZStlsISt11char_traitsIcEERSt13basic_ostreamIcT_ES5_PKc(ptr noundef nonnull align 8 dereferenceable(8) %18, ptr noundef nonnull @.str.15) #18
  br label %20

20:                                               ; preds = %8, %17
  %21 = add nuw nsw i32 %.06, 1
  %exitcond.not = icmp eq i32 %21, %1
  br i1 %exitcond.not, label %._crit_edge, label %8, !llvm.loop !22

._crit_edge:                                      ; preds = %20, %2
  ret void
}